; Function Attrs: nounwind uwtable
define ptr @l_Lean_catchInternalId___rarg___lambda__1(ptr noundef %0, ptr noundef %1, ptr noundef %2, ptr noundef %3) local_unnamed_addr #1 {
  %5 = ptrtoint ptr %3 to i64
  %6 = and i64 %5, 1
  %.not.i42 = icmp eq i64 %6, 0
  br i1 %.not.i42, label %10, label %7

7:                                                ; preds = %4
  %8 = lshr i64 %5, 1
  %9 = trunc i64 %8 to i32
  br label %lean_obj_tag.exit

10:                                               ; preds = %4
  %11 = getelementptr i8, ptr %3, i64 4
  %.val.i = load i32, ptr %11, align 4
  %12 = lshr i32 %.val.i, 24
  br label %lean_obj_tag.exit

lean_obj_tag.exit:                                ; preds = %7, %10
  %.0.i43 = phi i32 [ %9, %7 ], [ %12, %10 ]
  %13 = icmp eq i32 %.0.i43, 0
  br i1 %13, label %14, label %44

14:                                               ; preds = %lean_obj_tag.exit
  %15 = ptrtoint ptr %2 to i64
  %16 = and i64 %15, 1
  %.not61 = icmp eq i64 %16, 0
  br i1 %.not61, label %17, label %lean_dec.exit29

17:                                               ; preds = %14
  %18 = load i32, ptr %2, align 4, !tbaa !4
  %19 = icmp sgt i32 %18, 1
  br i1 %19, label %20, label %22, !prof !11

20:                                               ; preds = %17
  %21 = add nsw i32 %18, -1
  store i32 %21, ptr %2, align 4, !tbaa !4
  br label %lean_dec.exit29

22:                                               ; preds = %17
  %.not.i = icmp eq i32 %18, 0
  br i1 %.not.i, label %lean_dec.exit29, label %23

23:                                               ; preds = %22
  tail call void @lean_dec_ref_cold(ptr noundef nonnull %2) #7
  br label %lean_dec.exit29

lean_dec.exit29:                                  ; preds = %23, %22, %20, %14
  %24 = getelementptr inbounds nuw i8, ptr %0, i64 8
  %25 = load ptr, ptr %24, align 8, !tbaa !9
  %26 = ptrtoint ptr %25 to i64
  %27 = and i64 %26, 1
  %.not62 = icmp eq i64 %27, 0
  br i1 %.not62, label %28, label %lean_inc.exit31

28:                                               ; preds = %lean_dec.exit29
  %.val.i44 = load i32, ptr %25, align 4, !tbaa !4
  %29 = icmp sgt i32 %.val.i44, 0
  br i1 %29, label %30, label %32, !prof !11

30:                                               ; preds = %28
  %31 = add nuw i32 %.val.i44, 1
  store i32 %31, ptr %25, align 4, !tbaa !4
  br label %lean_inc.exit31

32:                                               ; preds = %28
  %.not.i45 = icmp eq i32 %.val.i44, 0
  br i1 %.not.i45, label %lean_inc.exit31, label %33

33:                                               ; preds = %32
  tail call void @lean_inc_ref_cold(ptr noundef nonnull %25) #7
  br label %lean_inc.exit31

lean_inc.exit31:                                  ; preds = %33, %32, %30, %lean_dec.exit29
  %34 = ptrtoint ptr %0 to i64
  %35 = and i64 %34, 1
  %.not63 = icmp eq i64 %35, 0
  br i1 %.not63, label %36, label %lean_dec.exit28

36:                                               ; preds = %lean_inc.exit31
  %37 = load i32, ptr %0, align 4, !tbaa !4
  %38 = icmp sgt i32 %37, 1
  br i1 %38, label %39, label %41, !prof !11

39:                                               ; preds = %36
  %40 = add nsw i32 %37, -1
  store i32 %40, ptr %0, align 4, !tbaa !4
  br label %lean_dec.exit28

41:                                               ; preds = %36
  %.not.i32 = icmp eq i32 %37, 0
  br i1 %.not.i32, label %lean_dec.exit28, label %42

42:                                               ; preds = %41
  tail call void @lean_dec_ref_cold(ptr noundef nonnull %0) #7
  br label %lean_dec.exit28

lean_dec.exit28:                                  ; preds = %42, %41, %39, %lean_inc.exit31
  %43 = tail call ptr @lean_apply_2(ptr noundef %25, ptr noundef nonnull inttoptr (i64 1 to ptr), ptr noundef %3) #7
  br label %107

44:                                               ; preds = %lean_obj_tag.exit
  %45 = getelementptr inbounds nuw i8, ptr %3, i64 8
  %46 = load ptr, ptr %45, align 8, !tbaa !9
  %47 = ptrtoint ptr %46 to i64
  %48 = and i64 %47, 1
  %.not = icmp eq i64 %48, 0
  br i1 %.not, label %49, label %lean_inc.exit30.thread

49:                                               ; preds = %44
  %.val.i46 = load i32, ptr %46, align 4, !tbaa !4
  %50 = icmp sgt i32 %.val.i46, 0
  br i1 %50, label %51, label %53, !prof !11

51:                                               ; preds = %49
  %52 = add nuw i32 %.val.i46, 1
  store i32 %52, ptr %46, align 4, !tbaa !4
  br label %lean_inc.exit30

53:                                               ; preds = %49
  %.not.i47 = icmp eq i32 %.val.i46, 0
  br i1 %.not.i47, label %lean_inc.exit30, label %54

54:                                               ; preds = %53
  tail call void @lean_inc_ref_cold(ptr noundef nonnull %46) #7
  br label %lean_inc.exit30

lean_inc.exit30:                                  ; preds = %54, %53, %51
  %55 = tail call zeroext i1 @lean_nat_big_eq(ptr noundef %1, ptr noundef nonnull %46) #7
  %56 = load i32, ptr %46, align 4, !tbaa !4
  %57 = icmp sgt i32 %56, 1
  br i1 %57, label %62, label %64, !prof !11

lean_inc.exit30.thread:                           ; preds = %44
  %58 = ptrtoint ptr %1 to i64
  %59 = and i64 %58, 1
  %.not56 = icmp eq i64 %59, 0
  br i1 %.not56, label %lean_nat_eq.exit.thread53, label %lean_nat_eq.exit.thread, !prof !14

lean_nat_eq.exit.thread53:                        ; preds = %lean_inc.exit30.thread
  %60 = tail call zeroext i1 @lean_nat_big_eq(ptr noundef %1, ptr noundef %46) #7
  br i1 %60, label %96, label %66

lean_nat_eq.exit.thread:                          ; preds = %lean_inc.exit30.thread
  %61 = icmp eq ptr %1, %46
  br i1 %61, label %96, label %66

62:                                               ; preds = %lean_inc.exit30
  %63 = add nsw i32 %56, -1
  store i32 %63, ptr %46, align 4, !tbaa !4
  br i1 %55, label %96, label %66

64:                                               ; preds = %lean_inc.exit30
  %.not.i34 = icmp eq i32 %56, 0
  br i1 %.not.i34, label %lean_dec.exit27, label %65

65:                                               ; preds = %64
  tail call void @lean_dec_ref_cold(ptr noundef nonnull %46) #7
  br i1 %55, label %96, label %66

lean_dec.exit27:                                  ; preds = %64
  br i1 %55, label %96, label %66

66:                                               ; preds = %65, %62, %lean_nat_eq.exit.thread53, %lean_nat_eq.exit.thread, %lean_dec.exit27
  %67 = ptrtoint ptr %2 to i64
  %68 = and i64 %67, 1
  %.not58 = icmp eq i64 %68, 0
  br i1 %.not58, label %69, label %lean_dec.exit26

69:                                               ; preds = %66
  %70 = load i32, ptr %2, align 4, !tbaa !4
  %71 = icmp sgt i32 %70, 1
  br i1 %71, label %72, label %74, !prof !11

72:                                               ; preds = %69
  %73 = add nsw i32 %70, -1
  store i32 %73, ptr %2, align 4, !tbaa !4
  br label %lean_dec.exit26

74:                                               ; preds = %69
  %.not.i36 = icmp eq i32 %70, 0
  br i1 %.not.i36, label %lean_dec.exit26, label %75

75:                                               ; preds = %74
  tail call void @lean_dec_ref_cold(ptr noundef nonnull %2) #7
  br label %lean_dec.exit26

lean_dec.exit26:                                  ; preds = %75, %74, %72, %66
  %76 = getelementptr inbounds nuw i8, ptr %0, i64 8
  %77 = load ptr, ptr %76, align 8, !tbaa !9
  %78 = ptrtoint ptr %77 to i64
  %79 = and i64 %78, 1
  %.not59 = icmp eq i64 %79, 0
  br i1 %.not59, label %80, label %lean_inc.exit

80:                                               ; preds = %lean_dec.exit26
  %.val.i49 = load i32, ptr %77, align 4, !tbaa !4
  %81 = icmp sgt i32 %.val.i49, 0
  br i1 %81, label %82, label %84, !prof !11

82:                                               ; preds = %80
  %83 = add nuw i32 %.val.i49, 1
  store i32 %83, ptr %77, align 4, !tbaa !4
  br label %lean_inc.exit

84:                                               ; preds = %80
  %.not.i50 = icmp eq i32 %.val.i49, 0
  br i1 %.not.i50, label %lean_inc.exit, label %85

85:                                               ; preds = %84
  tail call void @lean_inc_ref_cold(ptr noundef nonnull %77) #7
  br label %lean_inc.exit

lean_inc.exit:                                    ; preds = %85, %84, %82, %lean_dec.exit26
  %86 = ptrtoint ptr %0 to i64
  %87 = and i64 %86, 1
  %.not60 = icmp eq i64 %87, 0
  br i1 %.not60, label %88, label %lean_dec.exit25

88:                                               ; preds = %lean_inc.exit
  %89 = load i32, ptr %0, align 4, !tbaa !4
  %90 = icmp sgt i32 %89, 1
  br i1 %90, label %91, label %93, !prof !11

91:                                               ; preds = %88
  %92 = add nsw i32 %89, -1
  store i32 %92, ptr %0, align 4, !tbaa !4
  br label %lean_dec.exit25

93:                                               ; preds = %88
  %.not.i38 = icmp eq i32 %89, 0
  br i1 %.not.i38, label %lean_dec.exit25, label %94

94:                                               ; preds = %93
  tail call void @lean_dec_ref_cold(ptr noundef nonnull %0) #7
  br label %lean_dec.exit25

lean_dec.exit25:                                  ; preds = %94, %93, %91, %lean_inc.exit
  %95 = tail call ptr @lean_apply_2(ptr noundef %77, ptr noundef nonnull inttoptr (i64 1 to ptr), ptr noundef nonnull %3) #7
  br label %107

96:                                               ; preds = %65, %62, %lean_nat_eq.exit.thread53, %lean_nat_eq.exit.thread, %lean_dec.exit27
  %97 = ptrtoint ptr %0 to i64
  %98 = and i64 %97, 1
  %.not57 = icmp eq i64 %98, 0
  br i1 %.not57, label %99, label %lean_dec.exit

99:                                               ; preds = %96
  %100 = load i32, ptr %0, align 4, !tbaa !4
  %101 = icmp sgt i32 %100, 1
  br i1 %101, label %102, label %104, !prof !11

102:                                              ; preds = %99
  %103 = add nsw i32 %100, -1
  store i32 %103, ptr %0, align 4, !tbaa !4
  br label %lean_dec.exit

104:                                              ; preds = %99
  %.not.i40 = icmp eq i32 %100, 0
  br i1 %.not.i40, label %lean_dec.exit, label %105

105:                                              ; preds = %104
  tail call void @lean_dec_ref_cold(ptr noundef nonnull %0) #7
  br label %lean_dec.exit

lean_dec.exit:                                    ; preds = %105, %104, %102, %96
  %106 = tail call ptr @lean_apply_1(ptr noundef %2, ptr noundef nonnull %3) #7
  br label %107

107:                                              ; preds = %lean_dec.exit25, %lean_dec.exit, %lean_dec.exit28
  %.0 = phi ptr [ %43, %lean_dec.exit28 ], [ %95, %lean_dec.exit25 ], [ %106, %lean_dec.exit ]
  ret ptr %.0
}